; Function Attrs: mustprogress nofree norecurse nosync nounwind willreturn memory(argmem: read) uwtable
define noundef zeroext i1 @_ZNK32pxrInternal_v0_24__pxrReserved__7GfVec2feqERKNS_7GfVec2iE(ptr nocapture noundef nonnull readonly align 4 dereferenceable(8) %0, ptr nocapture noundef nonnull readonly align 4 dereferenceable(8) %1) local_unnamed_addr #2 align 2 {
  %3 = load float, ptr %0, align 4
  %4 = load i32, ptr %1, align 4
  %5 = sitofp i32 %4 to float
  %6 = fcmp oeq float %3, %5
  %7 = getelementptr inbounds i8, ptr %0, i64 4
  %8 = load float, ptr %7, align 4
  %9 = getelementptr inbounds i8, ptr %1, i64 4
  %10 = load i32, ptr %9, align 4
  %11 = sitofp i32 %10 to float
  %12 = fcmp oeq float %8, %11
  %13 = select i1 %6, i1 %12, i1 false
  ret i1 %13
}